target datalayout = "e-m:e-p270:32:32-p271:32:32-p272:64:64-i64:64-i128:128-f80:128-n8:16:32:64-S128"
target triple = "x86_64-pc-linux-gnu"

%"class.base::FilePath" = type { %"class.std::__cxx11::basic_string" }
%"class.std::__cxx11::basic_string" = type { %"struct.std::__cxx11::basic_string<char>::_Alloc_hider", i64, %union.anon }
%"struct.std::__cxx11::basic_string<char>::_Alloc_hider" = type { ptr }
%union.anon = type { i64, [8 x i8] }

; Function Attrs: mustprogress nounwind uwtable
define linkonce_odr void @_ZN4base18ThreadRestrictions15AssertIOAllowedEv() #1 comdat align 2 {
  ret void
}

; Function Attrs: mustprogress uwtable
define noundef zeroext i1 @_ZN4base24CreateTemporaryFileInDirERKNS_8FilePathEPS0_(ptr noundef nonnull align 8 dereferenceable(32) %0, ptr noundef %1) #0 personality ptr @__gxx_personality_v0 {
  %3 = alloca ptr, align 8
  %4 = alloca ptr, align 8
  %5 = alloca i32, align 4
  %6 = alloca %"class.base::FilePath", align 8
  %7 = alloca ptr, align 8
  %8 = alloca i32, align 4
  %9 = alloca i32, align 4
  %10 = alloca i32, align 4
  store ptr %0, ptr %3, align 8, !tbaa !3
  store ptr %1, ptr %4, align 8, !tbaa !3
  call void @_ZN4base18ThreadRestrictions15AssertIOAllowedEv()
  call void @llvm.lifetime.start.p0(i64 4, ptr %5) #10
  %11 = load ptr, ptr %3, align 8, !tbaa !3
  call void @_ZN4base8FilePathC1ERKS0_(ptr noundef nonnull align 8 dereferenceable(32) %6, ptr noundef nonnull align 8 dereferenceable(32) %11)
  %12 = load ptr, ptr %4, align 8, !tbaa !3
  %13 = invoke noundef i32 @_ZN4base12_GLOBAL__N_131CreateAndOpenFdForTemporaryFileENS_8FilePathEPS1_(ptr noundef %6, ptr noundef %12)
          to label %14 unwind label %28

14:                                               ; preds = %2
  call void @_ZN4base8FilePathD1Ev(ptr noundef nonnull align 8 dereferenceable(32) %6) #10
  store i32 %13, ptr %5, align 4, !tbaa !20
  %15 = load i32, ptr %5, align 4, !tbaa !20
  %16 = icmp sge i32 %15, 0
  br i1 %16, label %17, label %39

17:                                               ; preds = %14
  call void @llvm.lifetime.start.p0(i64 4, ptr %9) #10
  br label %18

18:                                               ; preds = %17
  %19 = load i32, ptr %5, align 4, !tbaa !20
  %20 = call i32 @close(i32 noundef %19)
  store i32 %20, ptr %9, align 4, !tbaa !20
  %21 = load i32, ptr %9, align 4, !tbaa !20
  %22 = icmp eq i32 %21, -1
  br i1 %22, label %23, label %32

23:                                               ; preds = %18
  %24 = call ptr @__errno_location() #17
  %25 = load i32, ptr %24, align 4, !tbaa !20
  %26 = icmp eq i32 %25, 4
  br i1 %26, label %27, label %32

27:                                               ; preds = %23
  store i32 0, ptr %9, align 4, !tbaa !20
  br label %32

28:                                               ; preds = %2
  %29 = landingpad { ptr, i32 }
          cleanup
  %30 = extractvalue { ptr, i32 } %29, 0
  store ptr %30, ptr %7, align 8
  %31 = extractvalue { ptr, i32 } %29, 1
  store i32 %31, ptr %8, align 4
  call void @_ZN4base8FilePathD1Ev(ptr noundef nonnull align 8 dereferenceable(32) %6) #10
  call void @llvm.lifetime.end.p0(i64 4, ptr %5) #10
  br label %41

32:                                               ; preds = %27, %23, %18
  br label %33

33:                                               ; preds = %32
  br label %34

34:                                               ; preds = %33
  %35 = load i32, ptr %9, align 4, !tbaa !20
  store i32 %35, ptr %10, align 4, !tbaa !20
  call void @llvm.lifetime.end.p0(i64 4, ptr %9) #10
  %36 = load i32, ptr %10, align 4, !tbaa !20
  %37 = icmp ne i32 %36, 0
  %38 = xor i1 %37, true
  br label %39

39:                                               ; preds = %34, %14
  %40 = phi i1 [ false, %14 ], [ %38, %34 ]
  call void @llvm.lifetime.end.p0(i64 4, ptr %5) #10
  ret i1 %40

41:                                               ; preds = %28
  %42 = load ptr, ptr %7, align 8
  %43 = load i32, ptr %8, align 4
  %44 = insertvalue { ptr, i32 } poison, ptr %42, 0
  %45 = insertvalue { ptr, i32 } %44, i32 %43, 1
  resume { ptr, i32 } %45
}