; Function Attrs: mustprogress uwtable
define noundef zeroext i1 @_ZN4base24CreateTemporaryFileInDirERKNS_8FilePathEPS0_(ptr noundef nonnull align 8 dereferenceable(32) %0, ptr noundef %1) local_unnamed_addr #0 personality ptr @__gxx_personality_v0 {
  %3 = alloca %"class.base::FilePath", align 8
  call void @_ZN4base8FilePathC1ERKS0_(ptr noundef nonnull align 8 dereferenceable(32) %3, ptr noundef nonnull align 8 dereferenceable(32) %0)
  %4 = invoke fastcc noundef i32 @_ZN4base12_GLOBAL__N_131CreateAndOpenFdForTemporaryFileENS_8FilePathEPS1_(ptr noundef %3, ptr noundef %1)
          to label %5 unwind label %14

5:                                                ; preds = %2
  call void @_ZN4base8FilePathD1Ev(ptr noundef nonnull align 8 dereferenceable(32) %3) #24
  %6 = icmp sgt i32 %4, -1
  br i1 %6, label %7, label %17

7:                                                ; preds = %5
  %8 = call i32 @close(i32 noundef %4)
  %9 = icmp eq i32 %8, -1
  br i1 %9, label %10, label %16

10:                                               ; preds = %7
  %11 = tail call ptr @__errno_location() #25
  %12 = load i32, ptr %11, align 4, !tbaa !11
  %13 = icmp ne i32 %12, 4
  %spec.select = sext i1 %13 to i32
  br label %16

14:                                               ; preds = %2
  %15 = landingpad { ptr, i32 }
          cleanup
  call void @_ZN4base8FilePathD1Ev(ptr noundef nonnull align 8 dereferenceable(32) %3) #24
  resume { ptr, i32 } %15

16:                                               ; preds = %10, %7
  %.0 = phi i32 [ %8, %7 ], [ %spec.select, %10 ]
  %.not = icmp eq i32 %.0, 0
  br label %17

17:                                               ; preds = %16, %5
  %18 = phi i1 [ false, %5 ], [ %.not, %16 ]
  ret i1 %18
}